; Function Attrs: nounwind uwtable
define dso_local void @hashendscan(ptr noundef %0) #0 {
  %2 = getelementptr inbounds nuw i8, ptr %0, i64 56
  %3 = load ptr, ptr %2, align 8
  %4 = getelementptr inbounds nuw i8, ptr %0, i64 8
  %5 = load ptr, ptr %4, align 8
  %6 = getelementptr inbounds nuw i8, ptr %3, i64 32
  %7 = load i32, ptr %6, align 4
  %.not11 = icmp eq i32 %7, -1
  br i1 %.not11, label %13, label %8

8:                                                ; preds = %1
  %9 = getelementptr inbounds nuw i8, ptr %3, i64 24
  %10 = load i32, ptr %9, align 8
  %11 = icmp sgt i32 %10, 0
  br i1 %11, label %12, label %13

12:                                               ; preds = %8
  tail call void @_hash_kill_items(ptr noundef nonnull %0) #9
  br label %13

13:                                               ; preds = %8, %12, %1
  tail call void @_hash_dropscanbuf(ptr noundef %5, ptr noundef nonnull %3) #9
  %14 = getelementptr inbounds nuw i8, ptr %3, i64 16
  %15 = load ptr, ptr %14, align 8
  %.not = icmp eq ptr %15, null
  br i1 %.not, label %17, label %16

16:                                               ; preds = %13
  tail call void @pfree(ptr noundef nonnull %15) #9
  br label %17

17:                                               ; preds = %16, %13
  tail call void @pfree(ptr noundef nonnull %3) #9
  store ptr null, ptr %2, align 8
  ret void
}